; Function Attrs: nounwind uwtable
define hidden noalias ptr @mi_strdup(ptr noundef %0) #3 {
  %2 = tail call align 8 ptr @llvm.threadlocal.address.p0(ptr align 8 @_mi_heap_default)
  %3 = load ptr, ptr %2, align 8, !tbaa !3
  %4 = icmp eq ptr %0, null
  br i1 %4, label %mi_heap_strdup.exit, label %5

5:                                                ; preds = %1
  %6 = tail call i64 @_mi_strlen(ptr noundef nonnull %0) #19
  %7 = add i64 %6, 1
  %8 = icmp ult i64 %7, 1025
  br i1 %8, label %9, label %mi_heap_malloc.exit.i, !prof !8

9:                                                ; preds = %5
  %10 = add nsw i64 %6, 8
  %11 = lshr i64 %10, 3
  %12 = getelementptr inbounds nuw i8, ptr %3, i64 232
  %13 = getelementptr inbounds nuw [129 x ptr], ptr %12, i64 0, i64 %11
  %14 = load ptr, ptr %13, align 8, !tbaa !9
  %15 = getelementptr inbounds nuw i8, ptr %14, i64 16
  %16 = load ptr, ptr %15, align 8, !tbaa !11
  %17 = icmp eq ptr %16, null
  br i1 %17, label %mi_heap_malloc.exit.i, label %mi_heap_malloc.exit.thread.i, !prof !18

mi_heap_malloc.exit.thread.i:                     ; preds = %9
  %.val.i.i.i.i.i.i = load i64, ptr %16, align 8, !tbaa !19
  %18 = inttoptr i64 %.val.i.i.i.i.i.i to ptr
  store ptr %18, ptr %15, align 8, !tbaa !11
  %19 = getelementptr inbounds nuw i8, ptr %14, i64 32
  %20 = load i16, ptr %19, align 8, !tbaa !21
  %21 = add i16 %20, 1
  store i16 %21, ptr %19, align 8, !tbaa !21
  br label %24

mi_heap_malloc.exit.i:                            ; preds = %9, %5
  %22 = tail call noalias ptr @_mi_malloc_generic(ptr noundef %3, i64 noundef %7, i1 noundef zeroext false, i64 noundef 0) #19
  %23 = icmp eq ptr %22, null
  br i1 %23, label %mi_heap_strdup.exit, label %24

24:                                               ; preds = %mi_heap_malloc.exit.i, %mi_heap_malloc.exit.thread.i
  %.0.i.i.i14.i = phi ptr [ %16, %mi_heap_malloc.exit.thread.i ], [ %22, %mi_heap_malloc.exit.i ]
  tail call void @llvm.memcpy.p0.p0.i64(ptr nonnull align 1 %.0.i.i.i14.i, ptr nonnull readonly align 1 %0, i64 %6, i1 false)
  %25 = getelementptr inbounds nuw i8, ptr %.0.i.i.i14.i, i64 %6
  store i8 0, ptr %25, align 1, !tbaa !24
  br label %mi_heap_strdup.exit

mi_heap_strdup.exit:                              ; preds = %1, %mi_heap_malloc.exit.i, %24
  %.0.i = phi ptr [ null, %1 ], [ %.0.i.i.i14.i, %24 ], [ null, %mi_heap_malloc.exit.i ]
  ret ptr %.0.i
}